target datalayout = "e-m:e-p270:32:32-p271:32:32-p272:64:64-i64:64-i128:128-f80:128-n8:16:32:64-S128"
target triple = "x86_64-pc-linux-gnu"

%struct.KDF_X942 = type { ptr, %struct.PROV_DIGEST, ptr, i64, ptr, i64, ptr, ptr, ptr, ptr, i64, i64, i64, i64, i64, ptr, i64, i32 }
%struct.PROV_DIGEST = type { ptr, ptr, ptr }

@.str = private unnamed_addr constant [52 x i8] c"../openssl/providers/implementations/kdfs/x942kdf.c\00", align 1
@__func__.x942kdf_derive = private unnamed_addr constant [15 x i8] c"x942kdf_derive\00", align 1

; Function Attrs: nounwind uwtable
define internal i32 @x942kdf_derive(ptr noundef %0, ptr noundef %1, i64 noundef %2, ptr noundef %3) #0 {
  %5 = alloca i32, align 4
  %6 = alloca ptr, align 8
  %7 = alloca ptr, align 8
  %8 = alloca i64, align 8
  %9 = alloca ptr, align 8
  %10 = alloca ptr, align 8
  %11 = alloca ptr, align 8
  %12 = alloca i32, align 4
  %13 = alloca ptr, align 8
  %14 = alloca ptr, align 8
  %15 = alloca i64, align 8
  %16 = alloca i32, align 4
  store ptr %0, ptr %6, align 8, !tbaa !3
  store ptr %1, ptr %7, align 8, !tbaa !31
  store i64 %2, ptr %8, align 8, !tbaa !32
  store ptr %3, ptr %9, align 8, !tbaa !33
  call void @llvm.lifetime.start.p0(i64 8, ptr %10) #6
  %17 = load ptr, ptr %6, align 8, !tbaa !3
  store ptr %17, ptr %10, align 8, !tbaa !3
  call void @llvm.lifetime.start.p0(i64 8, ptr %11) #6
  call void @llvm.lifetime.start.p0(i64 4, ptr %12) #6
  store i32 0, ptr %12, align 4, !tbaa !35
  call void @llvm.lifetime.start.p0(i64 8, ptr %13) #6
  call void @llvm.lifetime.start.p0(i64 8, ptr %14) #6
  store ptr null, ptr %14, align 8, !tbaa !31
  call void @llvm.lifetime.start.p0(i64 8, ptr %15) #6
  store i64 0, ptr %15, align 8, !tbaa !32
  %18 = call i32 @ossl_prov_is_running()
  %19 = icmp ne i32 %18, 0
  br i1 %19, label %20, label %25

20:                                               ; preds = %4
  %21 = load ptr, ptr %10, align 8, !tbaa !3
  %22 = load ptr, ptr %9, align 8, !tbaa !33
  %23 = call i32 @x942kdf_set_ctx_params(ptr noundef %21, ptr noundef %22)
  %24 = icmp ne i32 %23, 0
  br i1 %24, label %26, label %25

25:                                               ; preds = %20, %4
  store i32 0, ptr %5, align 4
  store i32 1, ptr %16, align 4
  br label %165

26:                                               ; preds = %20
  %27 = load ptr, ptr %10, align 8, !tbaa !3
  %28 = getelementptr inbounds nuw %struct.KDF_X942, ptr %27, i32 0, i32 17
  %29 = load i32, ptr %28, align 8, !tbaa !15
  %30 = icmp ne i32 %29, 0
  br i1 %30, label %31, label %37

31:                                               ; preds = %26
  %32 = load ptr, ptr %10, align 8, !tbaa !3
  %33 = getelementptr inbounds nuw %struct.KDF_X942, ptr %32, i32 0, i32 8
  %34 = load ptr, ptr %33, align 8, !tbaa !24
  %35 = icmp ne ptr %34, null
  br i1 %35, label %36, label %37

36:                                               ; preds = %31
  call void @ERR_new()
  call void @ERR_set_debug(ptr noundef @.str, i32 noundef 474, ptr noundef @__func__.x942kdf_derive)
  call void (i32, i32, ptr, ...) @ERR_set_error(i32 noundef 57, i32 noundef 198, ptr noundef null)
  store i32 0, ptr %5, align 4
  store i32 1, ptr %16, align 4
  br label %165

37:                                               ; preds = %31, %26
  %38 = load ptr, ptr %10, align 8, !tbaa !3
  %39 = getelementptr inbounds nuw %struct.KDF_X942, ptr %38, i32 0, i32 4
  %40 = load ptr, ptr %39, align 8, !tbaa !18
  %41 = icmp ne ptr %40, null
  br i1 %41, label %42, label %63

42:                                               ; preds = %37
  %43 = load ptr, ptr %10, align 8, !tbaa !3
  %44 = getelementptr inbounds nuw %struct.KDF_X942, ptr %43, i32 0, i32 6
  %45 = load ptr, ptr %44, align 8, !tbaa !20
  %46 = icmp ne ptr %45, null
  br i1 %46, label %62, label %47

47:                                               ; preds = %42
  %48 = load ptr, ptr %10, align 8, !tbaa !3
  %49 = getelementptr inbounds nuw %struct.KDF_X942, ptr %48, i32 0, i32 7
  %50 = load ptr, ptr %49, align 8, !tbaa !22
  %51 = icmp ne ptr %50, null
  br i1 %51, label %62, label %52

52:                                               ; preds = %47
  %53 = load ptr, ptr %10, align 8, !tbaa !3
  %54 = getelementptr inbounds nuw %struct.KDF_X942, ptr %53, i32 0, i32 8
  %55 = load ptr, ptr %54, align 8, !tbaa !24
  %56 = icmp ne ptr %55, null
  br i1 %56, label %62, label %57

57:                                               ; preds = %52
  %58 = load ptr, ptr %10, align 8, !tbaa !3
  %59 = getelementptr inbounds nuw %struct.KDF_X942, ptr %58, i32 0, i32 9
  %60 = load ptr, ptr %59, align 8, !tbaa !26
  %61 = icmp ne ptr %60, null
  br i1 %61, label %62, label %63

62:                                               ; preds = %57, %52, %47, %42
  call void @ERR_new()
  call void @ERR_set_debug(ptr noundef @.str, i32 noundef 486, ptr noundef @__func__.x942kdf_derive)
  call void (i32, i32, ptr, ...) @ERR_set_error(i32 noundef 57, i32 noundef 115, ptr noundef null)
  store i32 0, ptr %5, align 4
  store i32 1, ptr %16, align 4
  br label %165

63:                                               ; preds = %57, %37
  %64 = load ptr, ptr %10, align 8, !tbaa !3
  %65 = getelementptr inbounds nuw %struct.KDF_X942, ptr %64, i32 0, i32 2
  %66 = load ptr, ptr %65, align 8, !tbaa !16
  %67 = icmp eq ptr %66, null
  br i1 %67, label %68, label %69

68:                                               ; preds = %63
  call void @ERR_new()
  call void @ERR_set_debug(ptr noundef @.str, i32 noundef 490, ptr noundef @__func__.x942kdf_derive)
  call void (i32, i32, ptr, ...) @ERR_set_error(i32 noundef 57, i32 noundef 132, ptr noundef null)
  store i32 0, ptr %5, align 4
  store i32 1, ptr %16, align 4
  br label %165

69:                                               ; preds = %63
  %70 = load ptr, ptr %10, align 8, !tbaa !3
  %71 = getelementptr inbounds nuw %struct.KDF_X942, ptr %70, i32 0, i32 1
  %72 = call ptr @ossl_prov_digest_md(ptr noundef %71)
  store ptr %72, ptr %11, align 8, !tbaa !36
  %73 = load ptr, ptr %11, align 8, !tbaa !36
  %74 = icmp eq ptr %73, null
  br i1 %74, label %75, label %76

75:                                               ; preds = %69
  call void @ERR_new()
  call void @ERR_set_debug(ptr noundef @.str, i32 noundef 495, ptr noundef @__func__.x942kdf_derive)
  call void (i32, i32, ptr, ...) @ERR_set_error(i32 noundef 57, i32 noundef 129, ptr noundef null)
  store i32 0, ptr %5, align 4
  store i32 1, ptr %16, align 4
  br label %165

76:                                               ; preds = %69
  %77 = load ptr, ptr %10, align 8, !tbaa !3
  %78 = getelementptr inbounds nuw %struct.KDF_X942, ptr %77, i32 0, i32 15
  %79 = load ptr, ptr %78, align 8, !tbaa !28
  %80 = icmp eq ptr %79, null
  br i1 %80, label %86, label %81

81:                                               ; preds = %76
  %82 = load ptr, ptr %10, align 8, !tbaa !3
  %83 = getelementptr inbounds nuw %struct.KDF_X942, ptr %82, i32 0, i32 16
  %84 = load i64, ptr %83, align 8, !tbaa !29
  %85 = icmp eq i64 %84, 0
  br i1 %85, label %86, label %87

86:                                               ; preds = %81, %76
  call void @ERR_new()
  call void @ERR_set_debug(ptr noundef @.str, i32 noundef 499, ptr noundef @__func__.x942kdf_derive)
  call void (i32, i32, ptr, ...) @ERR_set_error(i32 noundef 57, i32 noundef 144, ptr noundef null)
  store i32 0, ptr %5, align 4
  store i32 1, ptr %16, align 4
  br label %165

87:                                               ; preds = %81
  %88 = load ptr, ptr %10, align 8, !tbaa !3
  %89 = getelementptr inbounds nuw %struct.KDF_X942, ptr %88, i32 0, i32 6
  %90 = load ptr, ptr %89, align 8, !tbaa !20
  %91 = icmp ne ptr %90, null
  br i1 %91, label %92, label %98

92:                                               ; preds = %87
  %93 = load ptr, ptr %10, align 8, !tbaa !3
  %94 = getelementptr inbounds nuw %struct.KDF_X942, ptr %93, i32 0, i32 10
  %95 = load i64, ptr %94, align 8, !tbaa !21
  %96 = icmp uge i64 %95, 1073741824
  br i1 %96, label %97, label %98

97:                                               ; preds = %92
  call void @ERR_new()
  call void @ERR_set_debug(ptr noundef @.str, i32 noundef 507, ptr noundef @__func__.x942kdf_derive)
  call void (i32, i32, ptr, ...) @ERR_set_error(i32 noundef 57, i32 noundef 200, ptr noundef null)
  store i32 0, ptr %5, align 4
  store i32 1, ptr %16, align 4
  br label %165

98:                                               ; preds = %92, %87
  %99 = load ptr, ptr %10, align 8, !tbaa !3
  %100 = getelementptr inbounds nuw %struct.KDF_X942, ptr %99, i32 0, i32 17
  %101 = load i32, ptr %100, align 8, !tbaa !15
  %102 = icmp ne i32 %101, 0
  br i1 %102, label %103, label %107

103:                                              ; preds = %98
  %104 = load ptr, ptr %10, align 8, !tbaa !3
  %105 = getelementptr inbounds nuw %struct.KDF_X942, ptr %104, i32 0, i32 14
  %106 = load i64, ptr %105, align 8, !tbaa !30
  br label %108

107:                                              ; preds = %98
  br label %108

108:                                              ; preds = %107, %103
  %109 = phi i64 [ %106, %103 ], [ 0, %107 ]
  %110 = load ptr, ptr %10, align 8, !tbaa !3
  %111 = getelementptr inbounds nuw %struct.KDF_X942, ptr %110, i32 0, i32 15
  %112 = load ptr, ptr %111, align 8, !tbaa !28
  %113 = load ptr, ptr %10, align 8, !tbaa !3
  %114 = getelementptr inbounds nuw %struct.KDF_X942, ptr %113, i32 0, i32 16
  %115 = load i64, ptr %114, align 8, !tbaa !29
  %116 = load ptr, ptr %10, align 8, !tbaa !3
  %117 = getelementptr inbounds nuw %struct.KDF_X942, ptr %116, i32 0, i32 4
  %118 = load ptr, ptr %117, align 8, !tbaa !18
  %119 = load ptr, ptr %10, align 8, !tbaa !3
  %120 = getelementptr inbounds nuw %struct.KDF_X942, ptr %119, i32 0, i32 5
  %121 = load i64, ptr %120, align 8, !tbaa !19
  %122 = load ptr, ptr %10, align 8, !tbaa !3
  %123 = getelementptr inbounds nuw %struct.KDF_X942, ptr %122, i32 0, i32 6
  %124 = load ptr, ptr %123, align 8, !tbaa !20
  %125 = load ptr, ptr %10, align 8, !tbaa !3
  %126 = getelementptr inbounds nuw %struct.KDF_X942, ptr %125, i32 0, i32 10
  %127 = load i64, ptr %126, align 8, !tbaa !21
  %128 = load ptr, ptr %10, align 8, !tbaa !3
  %129 = getelementptr inbounds nuw %struct.KDF_X942, ptr %128, i32 0, i32 7
  %130 = load ptr, ptr %129, align 8, !tbaa !22
  %131 = load ptr, ptr %10, align 8, !tbaa !3
  %132 = getelementptr inbounds nuw %struct.KDF_X942, ptr %131, i32 0, i32 11
  %133 = load i64, ptr %132, align 8, !tbaa !23
  %134 = load ptr, ptr %10, align 8, !tbaa !3
  %135 = getelementptr inbounds nuw %struct.KDF_X942, ptr %134, i32 0, i32 8
  %136 = load ptr, ptr %135, align 8, !tbaa !24
  %137 = load ptr, ptr %10, align 8, !tbaa !3
  %138 = getelementptr inbounds nuw %struct.KDF_X942, ptr %137, i32 0, i32 12
  %139 = load i64, ptr %138, align 8, !tbaa !25
  %140 = load ptr, ptr %10, align 8, !tbaa !3
  %141 = getelementptr inbounds nuw %struct.KDF_X942, ptr %140, i32 0, i32 9
  %142 = load ptr, ptr %141, align 8, !tbaa !26
  %143 = load ptr, ptr %10, align 8, !tbaa !3
  %144 = getelementptr inbounds nuw %struct.KDF_X942, ptr %143, i32 0, i32 13
  %145 = load i64, ptr %144, align 8, !tbaa !27
  %146 = call i32 @x942_encode_otherinfo(i64 noundef %109, ptr noundef %112, i64 noundef %115, ptr noundef %118, i64 noundef %121, ptr noundef %124, i64 noundef %127, ptr noundef %130, i64 noundef %133, ptr noundef %136, i64 noundef %139, ptr noundef %142, i64 noundef %145, ptr noundef %14, ptr noundef %15, ptr noundef %13)
  %147 = icmp ne i32 %146, 0
  br i1 %147, label %149, label %148

148:                                              ; preds = %108
  call void @ERR_new()
  call void @ERR_set_debug(ptr noundef @.str, i32 noundef 519, ptr noundef @__func__.x942kdf_derive)
  call void (i32, i32, ptr, ...) @ERR_set_error(i32 noundef 57, i32 noundef 141, ptr noundef null)
  store i32 0, ptr %5, align 4
  store i32 1, ptr %16, align 4
  br label %165

149:                                              ; preds = %108
  %150 = load ptr, ptr %11, align 8, !tbaa !36
  %151 = load ptr, ptr %10, align 8, !tbaa !3
  %152 = getelementptr inbounds nuw %struct.KDF_X942, ptr %151, i32 0, i32 2
  %153 = load ptr, ptr %152, align 8, !tbaa !16
  %154 = load ptr, ptr %10, align 8, !tbaa !3
  %155 = getelementptr inbounds nuw %struct.KDF_X942, ptr %154, i32 0, i32 3
  %156 = load i64, ptr %155, align 8, !tbaa !17
  %157 = load ptr, ptr %14, align 8, !tbaa !31
  %158 = load i64, ptr %15, align 8, !tbaa !32
  %159 = load ptr, ptr %13, align 8, !tbaa !31
  %160 = load ptr, ptr %7, align 8, !tbaa !31
  %161 = load i64, ptr %8, align 8, !tbaa !32
  %162 = call i32 @x942kdf_hash_kdm(ptr noundef %150, ptr noundef %153, i64 noundef %156, ptr noundef %157, i64 noundef %158, ptr noundef %159, ptr noundef %160, i64 noundef %161)
  store i32 %162, ptr %12, align 4, !tbaa !35
  %163 = load ptr, ptr %14, align 8, !tbaa !31
  call void @CRYPTO_free(ptr noundef %163, ptr noundef @.str, i32 noundef 524)
  %164 = load i32, ptr %12, align 4, !tbaa !35
  store i32 %164, ptr %5, align 4
  store i32 1, ptr %16, align 4
  br label %165

165:                                              ; preds = %149, %148, %97, %86, %75, %68, %62, %36, %25
  call void @llvm.lifetime.end.p0(i64 8, ptr %15) #6
  call void @llvm.lifetime.end.p0(i64 8, ptr %14) #6
  call void @llvm.lifetime.end.p0(i64 8, ptr %13) #6
  call void @llvm.lifetime.end.p0(i64 4, ptr %12) #6
  call void @llvm.lifetime.end.p0(i64 8, ptr %11) #6
  call void @llvm.lifetime.end.p0(i64 8, ptr %10) #6
  %166 = load i32, ptr %5, align 4
  ret i32 %166
}