; Function Attrs: nounwind uwtable
define internal range(i32 0, 2) i32 @x942kdf_derive(ptr noundef %0, ptr noundef %1, i64 noundef %2, ptr noundef %3) #0 {
  %5 = alloca ptr, align 8
  %6 = alloca ptr, align 8
  %7 = alloca i64, align 8
  call void @llvm.lifetime.start.p0(i64 8, ptr nonnull %5) #7
  call void @llvm.lifetime.start.p0(i64 8, ptr nonnull %6) #7
  store ptr null, ptr %6, align 8, !tbaa !30
  call void @llvm.lifetime.start.p0(i64 8, ptr nonnull %7) #7
  store i64 0, ptr %7, align 8, !tbaa !31
  %8 = tail call i32 @ossl_prov_is_running() #7
  %.not = icmp eq i32 %8, 0
  br i1 %.not, label %95, label %9

9:                                                ; preds = %4
  %10 = tail call i32 @x942kdf_set_ctx_params(ptr noundef %0, ptr noundef %3)
  %.not38 = icmp eq i32 %10, 0
  br i1 %.not38, label %95, label %11

11:                                               ; preds = %9
  %12 = getelementptr inbounds nuw i8, ptr %0, i64 152
  %13 = load i32, ptr %12, align 8, !tbaa !14
  %.not39 = icmp eq i32 %13, 0
  br i1 %.not39, label %18, label %14

14:                                               ; preds = %11
  %15 = getelementptr inbounds nuw i8, ptr %0, i64 80
  %16 = load ptr, ptr %15, align 8, !tbaa !23
  %.not40 = icmp eq ptr %16, null
  br i1 %.not40, label %18, label %17

17:                                               ; preds = %14
  tail call void @ERR_new() #7
  tail call void @ERR_set_debug(ptr noundef nonnull @.str, i32 noundef 474, ptr noundef nonnull @__func__.x942kdf_derive) #7
  tail call void (i32, i32, ptr, ...) @ERR_set_error(i32 noundef 57, i32 noundef 198, ptr noundef null) #7
  br label %95

18:                                               ; preds = %14, %11
  %19 = getelementptr inbounds nuw i8, ptr %0, i64 48
  %20 = load ptr, ptr %19, align 8, !tbaa !17
  %.not41 = icmp eq ptr %20, null
  br i1 %.not41, label %34, label %21

21:                                               ; preds = %18
  %22 = getelementptr inbounds nuw i8, ptr %0, i64 64
  %23 = load ptr, ptr %22, align 8, !tbaa !19
  %.not42 = icmp eq ptr %23, null
  br i1 %.not42, label %24, label %33

24:                                               ; preds = %21
  %25 = getelementptr inbounds nuw i8, ptr %0, i64 72
  %26 = load ptr, ptr %25, align 8, !tbaa !21
  %.not43 = icmp eq ptr %26, null
  br i1 %.not43, label %27, label %33

27:                                               ; preds = %24
  %28 = getelementptr inbounds nuw i8, ptr %0, i64 80
  %29 = load ptr, ptr %28, align 8, !tbaa !23
  %.not44 = icmp eq ptr %29, null
  br i1 %.not44, label %30, label %33

30:                                               ; preds = %27
  %31 = getelementptr inbounds nuw i8, ptr %0, i64 88
  %32 = load ptr, ptr %31, align 8, !tbaa !25
  %.not45 = icmp eq ptr %32, null
  br i1 %.not45, label %34, label %33

33:                                               ; preds = %30, %27, %24, %21
  tail call void @ERR_new() #7
  tail call void @ERR_set_debug(ptr noundef nonnull @.str, i32 noundef 486, ptr noundef nonnull @__func__.x942kdf_derive) #7
  tail call void (i32, i32, ptr, ...) @ERR_set_error(i32 noundef 57, i32 noundef 115, ptr noundef null) #7
  br label %95

34:                                               ; preds = %30, %18
  %35 = getelementptr inbounds nuw i8, ptr %0, i64 32
  %36 = load ptr, ptr %35, align 8, !tbaa !15
  %37 = icmp eq ptr %36, null
  br i1 %37, label %38, label %39

38:                                               ; preds = %34
  tail call void @ERR_new() #7
  tail call void @ERR_set_debug(ptr noundef nonnull @.str, i32 noundef 490, ptr noundef nonnull @__func__.x942kdf_derive) #7
  tail call void (i32, i32, ptr, ...) @ERR_set_error(i32 noundef 57, i32 noundef 132, ptr noundef null) #7
  br label %95

39:                                               ; preds = %34
  %40 = getelementptr inbounds nuw i8, ptr %0, i64 8
  %41 = tail call ptr @ossl_prov_digest_md(ptr noundef nonnull %40) #7
  %42 = icmp eq ptr %41, null
  br i1 %42, label %43, label %44

43:                                               ; preds = %39
  tail call void @ERR_new() #7
  tail call void @ERR_set_debug(ptr noundef nonnull @.str, i32 noundef 495, ptr noundef nonnull @__func__.x942kdf_derive) #7
  tail call void (i32, i32, ptr, ...) @ERR_set_error(i32 noundef 57, i32 noundef 129, ptr noundef null) #7
  br label %95

44:                                               ; preds = %39
  %45 = getelementptr inbounds nuw i8, ptr %0, i64 136
  %46 = load ptr, ptr %45, align 8, !tbaa !27
  %47 = icmp eq ptr %46, null
  br i1 %47, label %52, label %48

48:                                               ; preds = %44
  %49 = getelementptr inbounds nuw i8, ptr %0, i64 144
  %50 = load i64, ptr %49, align 8, !tbaa !28
  %51 = icmp eq i64 %50, 0
  br i1 %51, label %52, label %53

52:                                               ; preds = %48, %44
  tail call void @ERR_new() #7
  tail call void @ERR_set_debug(ptr noundef nonnull @.str, i32 noundef 499, ptr noundef nonnull @__func__.x942kdf_derive) #7
  tail call void (i32, i32, ptr, ...) @ERR_set_error(i32 noundef 57, i32 noundef 144, ptr noundef null) #7
  br label %95

53:                                               ; preds = %48
  %54 = getelementptr inbounds nuw i8, ptr %0, i64 64
  %55 = load ptr, ptr %54, align 8, !tbaa !19
  %.not46 = icmp eq ptr %55, null
  br i1 %.not46, label %61, label %56

56:                                               ; preds = %53
  %57 = getelementptr inbounds nuw i8, ptr %0, i64 96
  %58 = load i64, ptr %57, align 8, !tbaa !20
  %59 = icmp ugt i64 %58, 1073741823
  br i1 %59, label %60, label %61

60:                                               ; preds = %56
  tail call void @ERR_new() #7
  tail call void @ERR_set_debug(ptr noundef nonnull @.str, i32 noundef 507, ptr noundef nonnull @__func__.x942kdf_derive) #7
  tail call void (i32, i32, ptr, ...) @ERR_set_error(i32 noundef 57, i32 noundef 200, ptr noundef null) #7
  br label %95

61:                                               ; preds = %56, %53
  %62 = load i32, ptr %12, align 8, !tbaa !14
  %.not47 = icmp eq i32 %62, 0
  br i1 %.not47, label %66, label %63

63:                                               ; preds = %61
  %64 = getelementptr inbounds nuw i8, ptr %0, i64 128
  %65 = load i64, ptr %64, align 8, !tbaa !29
  br label %66

66:                                               ; preds = %61, %63
  %67 = phi i64 [ %65, %63 ], [ 0, %61 ]
  %68 = load ptr, ptr %19, align 8, !tbaa !17
  %69 = getelementptr inbounds nuw i8, ptr %0, i64 56
  %70 = load i64, ptr %69, align 8, !tbaa !18
  %71 = getelementptr inbounds nuw i8, ptr %0, i64 96
  %72 = load i64, ptr %71, align 8, !tbaa !20
  %73 = getelementptr inbounds nuw i8, ptr %0, i64 72
  %74 = load ptr, ptr %73, align 8, !tbaa !21
  %75 = getelementptr inbounds nuw i8, ptr %0, i64 104
  %76 = load i64, ptr %75, align 8, !tbaa !22
  %77 = getelementptr inbounds nuw i8, ptr %0, i64 80
  %78 = load ptr, ptr %77, align 8, !tbaa !23
  %79 = getelementptr inbounds nuw i8, ptr %0, i64 112
  %80 = load i64, ptr %79, align 8, !tbaa !24
  %81 = getelementptr inbounds nuw i8, ptr %0, i64 88
  %82 = load ptr, ptr %81, align 8, !tbaa !25
  %83 = getelementptr inbounds nuw i8, ptr %0, i64 120
  %84 = load i64, ptr %83, align 8, !tbaa !26
  %85 = call fastcc i32 @x942_encode_otherinfo(i64 noundef %67, ptr noundef nonnull %46, i64 noundef %50, ptr noundef %68, i64 noundef %70, ptr noundef %55, i64 noundef %72, ptr noundef %74, i64 noundef %76, ptr noundef %78, i64 noundef %80, ptr noundef %82, i64 noundef %84, ptr noundef %6, ptr noundef %7, ptr noundef %5)
  %.not48 = icmp eq i32 %85, 0
  br i1 %.not48, label %86, label %87

86:                                               ; preds = %66
  tail call void @ERR_new() #7
  tail call void @ERR_set_debug(ptr noundef nonnull @.str, i32 noundef 519, ptr noundef nonnull @__func__.x942kdf_derive) #7
  tail call void (i32, i32, ptr, ...) @ERR_set_error(i32 noundef 57, i32 noundef 141, ptr noundef null) #7
  br label %95

87:                                               ; preds = %66
  %88 = load ptr, ptr %35, align 8, !tbaa !15
  %89 = getelementptr inbounds nuw i8, ptr %0, i64 40
  %90 = load i64, ptr %89, align 8, !tbaa !16
  %91 = load ptr, ptr %6, align 8, !tbaa !30
  %92 = load i64, ptr %7, align 8, !tbaa !31
  %93 = load ptr, ptr %5, align 8, !tbaa !30
  %94 = tail call fastcc i32 @x942kdf_hash_kdm(ptr noundef %41, ptr noundef %88, i64 noundef %90, ptr noundef %91, i64 noundef %92, ptr noundef %93, ptr noundef %1, i64 noundef %2)
  tail call void @CRYPTO_free(ptr noundef %91, ptr noundef nonnull @.str, i32 noundef 524) #7
  br label %95

95:                                               ; preds = %4, %9, %87, %86, %60, %52, %43, %38, %33, %17
  %.0 = phi i32 [ 0, %17 ], [ 0, %33 ], [ 0, %38 ], [ 0, %43 ], [ 0, %52 ], [ 0, %60 ], [ %94, %87 ], [ 0, %86 ], [ 0, %9 ], [ 0, %4 ]
  call void @llvm.lifetime.end.p0(i64 8, ptr nonnull %7) #7
  call void @llvm.lifetime.end.p0(i64 8, ptr nonnull %6) #7
  call void @llvm.lifetime.end.p0(i64 8, ptr nonnull %5) #7
  ret i32 %.0
}